; Function Attrs: nounwind uwtable
define hidden void @hwloc_internal_distances_destroy(ptr noundef captures(none) %0) local_unnamed_addr #1 {
  %2 = getelementptr inbounds nuw i8, ptr %0, i64 728
  %3 = load ptr, ptr %2, align 8, !tbaa !37
  %.not6 = icmp eq ptr %3, null
  br i1 %.not6, label %._crit_edge, label %.lr.ph

.lr.ph:                                           ; preds = %1, %.lr.ph
  %.07 = phi ptr [ %5, %.lr.ph ], [ %3, %1 ]
  %4 = getelementptr inbounds nuw i8, ptr %.07, i64 80
  %5 = load ptr, ptr %4, align 8, !tbaa !38
  %6 = load ptr, ptr %.07, align 8, !tbaa !43
  tail call void @free(ptr noundef %6) #27
  %7 = getelementptr inbounds nuw i8, ptr %.07, i64 16
  %8 = load ptr, ptr %7, align 8, !tbaa !44
  tail call void @free(ptr noundef %8) #27
  %9 = getelementptr inbounds nuw i8, ptr %.07, i64 32
  %10 = load ptr, ptr %9, align 8, !tbaa !45
  tail call void @free(ptr noundef %10) #27
  %11 = getelementptr inbounds nuw i8, ptr %.07, i64 64
  %12 = load ptr, ptr %11, align 8, !tbaa !46
  tail call void @free(ptr noundef %12) #27
  %13 = getelementptr inbounds nuw i8, ptr %.07, i64 40
  %14 = load ptr, ptr %13, align 8, !tbaa !47
  tail call void @free(ptr noundef %14) #27
  tail call void @free(ptr noundef nonnull %.07) #27
  %.not = icmp eq ptr %5, null
  br i1 %.not, label %._crit_edge, label %.lr.ph, !llvm.loop !48

._crit_edge:                                      ; preds = %.lr.ph, %1
  tail call void @llvm.memset.p0.i64(ptr noundef nonnull align 8 dereferenceable(16) %2, i8 0, i64 16, i1 false)
  ret void
}